target datalayout = "e-m:e-p270:32:32-p271:32:32-p272:64:64-i64:64-i128:128-f80:128-n8:16:32:64-S128"
target triple = "x86_64-pc-linux-gnu"

%struct.lua_TValue = type { %union.Value, [1 x i32], i32 }
%union.Value = type { ptr }

; Function Attrs: alwaysinline mustprogress nounwind uwtable
define internal noundef double @_ZL13_mm_cvtsd_f64Dv2_d(<2 x double> noundef %0) #8 {
  %2 = alloca <2 x double>, align 16
  store <2 x double> %0, ptr %2, align 16, !tbaa !15
  %3 = load <2 x double>, ptr %2, align 16, !tbaa !15
  %4 = extractelement <2 x double> %3, i32 0
  ret double %4
}

; Function Attrs: alwaysinline mustprogress nounwind uwtable
define internal noundef <2 x double> @_ZL10_mm_set_sdd(double noundef %0) #8 {
  %2 = alloca double, align 8
  %3 = alloca <2 x double>, align 16
  store double %0, ptr %2, align 8, !tbaa !16
  %4 = load double, ptr %2, align 8, !tbaa !16
  %5 = insertelement <2 x double> poison, double %4, i32 0
  %6 = insertelement <2 x double> %5, double 0.000000e+00, i32 1
  store <2 x double> %6, ptr %3, align 16, !tbaa !15
  %7 = load <2 x double>, ptr %3, align 16, !tbaa !15
  ret <2 x double> %7
}

; Function Attrs: inlinehint mustprogress nounwind uwtable
define linkonce_odr dso_local noundef double @_Z13roundsd_sse41ILi1EEdd(double noundef %0) #10 comdat {
  %2 = alloca double, align 8
  %3 = alloca <2 x double>, align 16
  %4 = alloca <2 x double>, align 16
  store double %0, ptr %2, align 8, !tbaa !16
  call void @llvm.lifetime.start.p0(i64 16, ptr %3) #17
  %5 = load double, ptr %2, align 8, !tbaa !16
  %6 = call noundef <2 x double> @_ZL10_mm_set_sdd(double noundef %5)
  store <2 x double> %6, ptr %3, align 16, !tbaa !15
  call void @llvm.lifetime.start.p0(i64 16, ptr %4) #17
  %7 = load <2 x double>, ptr %3, align 16, !tbaa !15
  %8 = load <2 x double>, ptr %3, align 16, !tbaa !15
  %9 = call <2 x double> @llvm.x86.sse41.round.sd(<2 x double> %7, <2 x double> %8, i32 9)
  store <2 x double> %9, ptr %4, align 16, !tbaa !15
  %10 = load <2 x double>, ptr %4, align 16, !tbaa !15
  %11 = call noundef double @_ZL13_mm_cvtsd_f64Dv2_d(<2 x double> noundef %10)
  call void @llvm.lifetime.end.p0(i64 16, ptr %4) #17
  call void @llvm.lifetime.end.p0(i64 16, ptr %3) #17
  ret double %11
}

; Function Attrs: mustprogress uwtable
define internal noundef i32 @_ZL17luauF_floor_sse41P9lua_StateP10lua_TValueS2_iS2_i(ptr noundef %0, ptr noundef %1, ptr noundef %2, i32 noundef %3, ptr noundef %4, i32 noundef %5) #2 {
  %7 = alloca i32, align 4
  %8 = alloca ptr, align 8
  %9 = alloca ptr, align 8
  %10 = alloca ptr, align 8
  %11 = alloca i32, align 4
  %12 = alloca ptr, align 8
  %13 = alloca i32, align 4
  %14 = alloca double, align 8
  %15 = alloca ptr, align 8
  store ptr %0, ptr %8, align 8, !tbaa !4
  store ptr %1, ptr %9, align 8, !tbaa !9
  store ptr %2, ptr %10, align 8, !tbaa !9
  store i32 %3, ptr %11, align 4, !tbaa !11
  store ptr %4, ptr %12, align 8, !tbaa !9
  store i32 %5, ptr %13, align 4, !tbaa !11
  %16 = load i32, ptr %13, align 4, !tbaa !11
  %17 = icmp sge i32 %16, 1
  br i1 %17, label %18, label %37

18:                                               ; preds = %6
  %19 = load i32, ptr %11, align 4, !tbaa !11
  %20 = icmp sle i32 %19, 1
  br i1 %20, label %21, label %37

21:                                               ; preds = %18
  %22 = load ptr, ptr %10, align 8, !tbaa !9
  %23 = getelementptr inbounds nuw %struct.lua_TValue, ptr %22, i32 0, i32 2
  %24 = load i32, ptr %23, align 4, !tbaa !13
  %25 = icmp eq i32 %24, 3
  br i1 %25, label %26, label %37

26:                                               ; preds = %21
  call void @llvm.lifetime.start.p0(i64 8, ptr %14) #17
  %27 = load ptr, ptr %10, align 8, !tbaa !9
  %28 = getelementptr inbounds nuw %struct.lua_TValue, ptr %27, i32 0, i32 0
  %29 = load double, ptr %28, align 8, !tbaa !15
  store double %29, ptr %14, align 8, !tbaa !16
  call void @llvm.lifetime.start.p0(i64 8, ptr %15) #17
  %30 = load ptr, ptr %9, align 8, !tbaa !9
  store ptr %30, ptr %15, align 8, !tbaa !9
  %31 = load double, ptr %14, align 8, !tbaa !16
  %32 = call noundef double @_Z13roundsd_sse41ILi1EEdd(double noundef %31)
  %33 = load ptr, ptr %15, align 8, !tbaa !9
  %34 = getelementptr inbounds nuw %struct.lua_TValue, ptr %33, i32 0, i32 0
  store double %32, ptr %34, align 8, !tbaa !15
  %35 = load ptr, ptr %15, align 8, !tbaa !9
  %36 = getelementptr inbounds nuw %struct.lua_TValue, ptr %35, i32 0, i32 2
  store i32 3, ptr %36, align 4, !tbaa !13
  call void @llvm.lifetime.end.p0(i64 8, ptr %15) #17
  store i32 1, ptr %7, align 4
  call void @llvm.lifetime.end.p0(i64 8, ptr %14) #17
  br label %38

37:                                               ; preds = %21, %18, %6
  store i32 -1, ptr %7, align 4
  br label %38

38:                                               ; preds = %37, %26
  %39 = load i32, ptr %7, align 4
  ret i32 %39
}